target datalayout = "e-m:e-p270:32:32-p271:32:32-p272:64:64-i64:64-i128:128-f80:128-n8:16:32:64-S128"
target triple = "x86_64-pc-linux-gnu"

%"class.QtPrivate::RefCount" = type { %class.QBasicAtomicInteger }
%class.QBasicAtomicInteger = type { %"struct.std::atomic" }
%"struct.std::atomic" = type { %"struct.std::__atomic_base" }
%"struct.std::__atomic_base" = type { i32 }
%"struct.QListData::Data" = type { %"class.QtPrivate::RefCount", i32, i32, i32, [1 x ptr] }
%class.QList = type { %union.anon.4 }
%union.anon.4 = type { %struct.QListData }
%struct.QListData = type { ptr }

; Function Attrs: mustprogress nounwind uwtable
define linkonce_odr noundef nonnull align 8 dereferenceable(8) ptr @_ZN5QListIP7QActionE4Node1tEv(ptr noundef nonnull align 8 dereferenceable(8) %0) #1 comdat align 2 {
  %2 = alloca ptr, align 8
  store ptr %0, ptr %2, align 8
  %3 = load ptr, ptr %2, align 8
  ret ptr %3
}

; Function Attrs: mustprogress nounwind uwtable
define linkonce_odr noundef ptr @_ZNK9QListData2atEi(ptr noundef nonnull align 8 dereferenceable(8) %0, i32 noundef %1) #1 comdat align 2 {
  %3 = alloca ptr, align 8
  %4 = alloca i32, align 4
  store ptr %0, ptr %3, align 8
  store i32 %1, ptr %4, align 4
  %5 = load ptr, ptr %3, align 8
  %6 = getelementptr inbounds %struct.QListData, ptr %5, i32 0, i32 0
  %7 = load ptr, ptr %6, align 8
  %8 = getelementptr inbounds %"struct.QListData::Data", ptr %7, i32 0, i32 4
  %9 = getelementptr inbounds [1 x ptr], ptr %8, i64 0, i64 0
  %10 = getelementptr inbounds %struct.QListData, ptr %5, i32 0, i32 0
  %11 = load ptr, ptr %10, align 8
  %12 = getelementptr inbounds %"struct.QListData::Data", ptr %11, i32 0, i32 2
  %13 = load i32, ptr %12, align 8
  %14 = sext i32 %13 to i64
  %15 = getelementptr inbounds ptr, ptr %9, i64 %14
  %16 = load i32, ptr %4, align 4
  %17 = sext i32 %16 to i64
  %18 = getelementptr inbounds ptr, ptr %15, i64 %17
  ret ptr %18
}

; Function Attrs: mustprogress nounwind uwtable
define linkonce_odr noundef i32 @_ZNK9QListData4sizeEv(ptr noundef nonnull align 8 dereferenceable(8) %0) #1 comdat align 2 {
  %2 = alloca ptr, align 8
  store ptr %0, ptr %2, align 8
  %3 = load ptr, ptr %2, align 8
  %4 = getelementptr inbounds %struct.QListData, ptr %3, i32 0, i32 0
  %5 = load ptr, ptr %4, align 8
  %6 = getelementptr inbounds %"struct.QListData::Data", ptr %5, i32 0, i32 3
  %7 = load i32, ptr %6, align 4
  %8 = getelementptr inbounds %struct.QListData, ptr %3, i32 0, i32 0
  %9 = load ptr, ptr %8, align 8
  %10 = getelementptr inbounds %"struct.QListData::Data", ptr %9, i32 0, i32 2
  %11 = load i32, ptr %10, align 8
  %12 = sub nsw i32 %7, %11
  ret i32 %12
}

; Function Attrs: mustprogress nounwind uwtable
define linkonce_odr noundef nonnull align 8 dereferenceable(8) ptr @_ZNK5QListIP7QActionEixEi(ptr noundef nonnull align 8 dereferenceable(8) %0, i32 noundef %1) #1 comdat align 2 {
  %3 = alloca ptr, align 8
  %4 = alloca i32, align 4
  store ptr %0, ptr %3, align 8
  store i32 %1, ptr %4, align 4
  %5 = load ptr, ptr %3, align 8
  %6 = getelementptr inbounds %class.QList, ptr %5, i32 0, i32 0
  %7 = load i32, ptr %4, align 4
  %8 = call noundef ptr @_ZNK9QListData2atEi(ptr noundef nonnull align 8 dereferenceable(8) %6, i32 noundef %7) #9
  %9 = call noundef nonnull align 8 dereferenceable(8) ptr @_ZN5QListIP7QActionE4Node1tEv(ptr noundef nonnull align 8 dereferenceable(8) %8)
  ret ptr %9
}

; Function Attrs: mustprogress nounwind uwtable
define linkonce_odr noundef i32 @_ZNK5QListIP7QActionE4sizeEv(ptr noundef nonnull align 8 dereferenceable(8) %0) #1 comdat align 2 {
  %2 = alloca ptr, align 8
  store ptr %0, ptr %2, align 8
  %3 = load ptr, ptr %2, align 8
  %4 = getelementptr inbounds %class.QList, ptr %3, i32 0, i32 0
  %5 = call noundef i32 @_ZNK9QListData4sizeEv(ptr noundef nonnull align 8 dereferenceable(8) %4) #9
  ret i32 %5
}

; Function Attrs: mustprogress uwtable
define noundef i32 @_ZNK10SearchMenu17nextEnabledActionEiiRK5QListIP7QActionERS2_(ptr noundef nonnull align 8 dereferenceable(72) %0, i32 noundef %1, i32 noundef %2, ptr noundef nonnull align 8 dereferenceable(8) %3, ptr noundef nonnull align 8 dereferenceable(8) %4) #2 align 2 {
  %6 = alloca i32, align 4
  %7 = alloca ptr, align 8
  %8 = alloca i32, align 4
  %9 = alloca i32, align 4
  %10 = alloca ptr, align 8
  %11 = alloca ptr, align 8
  %12 = alloca i32, align 4
  %13 = alloca ptr, align 8
  %14 = alloca i32, align 4
  %15 = alloca ptr, align 8
  store ptr %0, ptr %7, align 8
  store i32 %1, ptr %8, align 4
  store i32 %2, ptr %9, align 4
  store ptr %3, ptr %10, align 8
  store ptr %4, ptr %11, align 8
  store i32 -1, ptr %12, align 4
  %16 = load i32, ptr %9, align 4
  %17 = icmp slt i32 %16, 0
  br i1 %17, label %23, label %18

18:                                               ; preds = %5
  %19 = load i32, ptr %9, align 4
  %20 = load ptr, ptr %10, align 8
  %21 = call noundef i32 @_ZNK5QListIP7QActionE4sizeEv(ptr noundef nonnull align 8 dereferenceable(8) %20) #9
  %22 = icmp sge i32 %19, %21
  br i1 %22, label %23, label %24

23:                                               ; preds = %18, %5
  store i32 -1, ptr %6, align 4
  br label %80

24:                                               ; preds = %18
  %25 = load ptr, ptr %10, align 8
  %26 = load i32, ptr %9, align 4
  %27 = call noundef nonnull align 8 dereferenceable(8) ptr @_ZNK5QListIP7QActionEixEi(ptr noundef nonnull align 8 dereferenceable(8) %25, i32 noundef %26)
  %28 = load ptr, ptr %27, align 8
  store ptr %28, ptr %13, align 8
  %29 = load ptr, ptr %10, align 8
  %30 = call noundef i32 @_ZNK5QListIP7QActionE4sizeEv(ptr noundef nonnull align 8 dereferenceable(8) %29) #9
  %31 = icmp sgt i32 %30, 0
  br i1 %31, label %32, label %79

32:                                               ; preds = %24
  %33 = load ptr, ptr %13, align 8
  %34 = icmp eq ptr %33, null
  br i1 %34, label %35, label %36

35:                                               ; preds = %32
  store i32 -1, ptr %6, align 4
  br label %80

36:                                               ; preds = %32
  %37 = load i32, ptr %9, align 4
  store i32 %37, ptr %14, align 4
  br label %38

38:                                               ; preds = %74, %36
  %39 = load i32, ptr %8, align 4
  %40 = icmp eq i32 %39, 16777235
  br i1 %40, label %41, label %50

41:                                               ; preds = %38
  %42 = load ptr, ptr %10, align 8
  %43 = call noundef i32 @_ZNK5QListIP7QActionE4sizeEv(ptr noundef nonnull align 8 dereferenceable(8) %42) #9
  %44 = load i32, ptr %14, align 4
  %45 = sub nsw i32 %44, 1
  %46 = add nsw i32 %43, %45
  %47 = load ptr, ptr %10, align 8
  %48 = call noundef i32 @_ZNK5QListIP7QActionE4sizeEv(ptr noundef nonnull align 8 dereferenceable(8) %47) #9
  %49 = srem i32 %46, %48
  store i32 %49, ptr %14, align 4
  br label %56

50:                                               ; preds = %38
  %51 = load i32, ptr %14, align 4
  %52 = add nsw i32 %51, 1
  %53 = load ptr, ptr %10, align 8
  %54 = call noundef i32 @_ZNK5QListIP7QActionE4sizeEv(ptr noundef nonnull align 8 dereferenceable(8) %53) #9
  %55 = srem i32 %52, %54
  store i32 %55, ptr %14, align 4
  br label %56

56:                                               ; preds = %50, %41
  %57 = load ptr, ptr %10, align 8
  %58 = load i32, ptr %14, align 4
  %59 = call noundef nonnull align 8 dereferenceable(8) ptr @_ZNK5QListIP7QActionEixEi(ptr noundef nonnull align 8 dereferenceable(8) %57, i32 noundef %58)
  %60 = load ptr, ptr %59, align 8
  store ptr %60, ptr %15, align 8
  %61 = load ptr, ptr %15, align 8
  %62 = icmp ne ptr %61, null
  br i1 %62, label %63, label %73

63:                                               ; preds = %56
  %64 = load ptr, ptr %15, align 8
  %65 = call noundef zeroext i1 @_ZNK7QAction9isEnabledEv(ptr noundef nonnull align 8 dereferenceable(16) %64)
  br i1 %65, label %66, label %73

66:                                               ; preds = %63
  %67 = load ptr, ptr %15, align 8
  %68 = call noundef zeroext i1 @_ZNK7QAction11isSeparatorEv(ptr noundef nonnull align 8 dereferenceable(16) %67)
  br i1 %68, label %73, label %69

69:                                               ; preds = %66
  %70 = load ptr, ptr %15, align 8
  %71 = load ptr, ptr %11, align 8
  store ptr %70, ptr %71, align 8
  %72 = load i32, ptr %14, align 4
  store i32 %72, ptr %6, align 4
  br label %80

73:                                               ; preds = %66, %63, %56
  br label %74

74:                                               ; preds = %73
  %75 = load i32, ptr %14, align 4
  %76 = load i32, ptr %9, align 4
  %77 = icmp ne i32 %75, %76
  br i1 %77, label %38, label %78, !llvm.loop !11

78:                                               ; preds = %74
  store i32 -1, ptr %6, align 4
  br label %80

79:                                               ; preds = %24
  store i32 -1, ptr %6, align 4
  br label %80

80:                                               ; preds = %79, %78, %69, %35, %23
  %81 = load i32, ptr %6, align 4
  ret i32 %81
}