; Function Attrs: mustprogress uwtable
define noundef i32 @_ZNK10SearchMenu17nextEnabledActionEiiRK5QListIP7QActionERS2_(ptr nocapture nonnull readnone align 8 %0, i32 noundef %1, i32 noundef %2, ptr nocapture noundef nonnull readonly align 8 dereferenceable(8) %3, ptr nocapture noundef nonnull writeonly align 8 dereferenceable(8) %4) local_unnamed_addr #2 align 2 {
  %6 = icmp slt i32 %2, 0
  br i1 %6, label %.loopexit, label %7

7:                                                ; preds = %5
  %8 = load ptr, ptr %3, align 8
  %9 = getelementptr inbounds i8, ptr %8, i64 12
  %10 = load i32, ptr %9, align 4
  %11 = getelementptr inbounds i8, ptr %8, i64 8
  %12 = load i32, ptr %11, align 8
  %13 = sub nsw i32 %10, %12
  %.not = icmp sgt i32 %13, %2
  br i1 %.not, label %14, label %.loopexit

14:                                               ; preds = %7
  %15 = getelementptr inbounds i8, ptr %8, i64 16
  %16 = sext i32 %12 to i64
  %17 = getelementptr inbounds ptr, ptr %15, i64 %16
  %18 = zext nneg i32 %2 to i64
  %19 = getelementptr inbounds ptr, ptr %17, i64 %18
  %20 = load ptr, ptr %19, align 8
  %21 = icmp eq ptr %20, null
  br i1 %21, label %.loopexit, label %.preheader

.preheader:                                       ; preds = %14
  %22 = icmp eq i32 %1, 16777235
  br i1 %22, label %.preheader.split.us, label %.preheader.split

.preheader.split.us:                              ; preds = %.preheader, %42
  %.024.us = phi i32 [ %31, %42 ], [ %2, %.preheader ]
  %23 = load ptr, ptr %3, align 8
  %24 = getelementptr inbounds i8, ptr %23, i64 12
  %25 = load i32, ptr %24, align 4
  %26 = getelementptr inbounds i8, ptr %23, i64 8
  %27 = load i32, ptr %26, align 8
  %28 = sub nsw i32 %25, %27
  %29 = add nsw i32 %.024.us, -1
  %30 = add nsw i32 %29, %28
  %31 = srem i32 %30, %28
  %32 = getelementptr inbounds i8, ptr %23, i64 16
  %33 = sext i32 %27 to i64
  %34 = getelementptr inbounds ptr, ptr %32, i64 %33
  %35 = sext i32 %31 to i64
  %36 = getelementptr inbounds ptr, ptr %34, i64 %35
  %37 = load ptr, ptr %36, align 8
  %.not27.us = icmp eq ptr %37, null
  br i1 %.not27.us, label %42, label %38

38:                                               ; preds = %.preheader.split.us
  %39 = tail call noundef zeroext i1 @_ZNK7QAction9isEnabledEv(ptr noundef nonnull align 8 dereferenceable(16) %37)
  br i1 %39, label %40, label %42

40:                                               ; preds = %38
  %41 = tail call noundef zeroext i1 @_ZNK7QAction11isSeparatorEv(ptr noundef nonnull align 8 dereferenceable(16) %37)
  br i1 %41, label %42, label %.split.us

42:                                               ; preds = %40, %38, %.preheader.split.us
  %.not28.us = icmp eq i32 %31, %2
  br i1 %.not28.us, label %.loopexit, label %.preheader.split.us, !llvm.loop !21

.preheader.split:                                 ; preds = %.preheader, %61
  %.024 = phi i32 [ %50, %61 ], [ %2, %.preheader ]
  %43 = add nsw i32 %.024, 1
  %44 = load ptr, ptr %3, align 8
  %45 = getelementptr inbounds i8, ptr %44, i64 12
  %46 = load i32, ptr %45, align 4
  %47 = getelementptr inbounds i8, ptr %44, i64 8
  %48 = load i32, ptr %47, align 8
  %49 = sub nsw i32 %46, %48
  %50 = srem i32 %43, %49
  %51 = getelementptr inbounds i8, ptr %44, i64 16
  %52 = sext i32 %48 to i64
  %53 = getelementptr inbounds ptr, ptr %51, i64 %52
  %54 = sext i32 %50 to i64
  %55 = getelementptr inbounds ptr, ptr %53, i64 %54
  %56 = load ptr, ptr %55, align 8
  %.not27 = icmp eq ptr %56, null
  br i1 %.not27, label %61, label %57

57:                                               ; preds = %.preheader.split
  %58 = tail call noundef zeroext i1 @_ZNK7QAction9isEnabledEv(ptr noundef nonnull align 8 dereferenceable(16) %56)
  br i1 %58, label %59, label %61

59:                                               ; preds = %57
  %60 = tail call noundef zeroext i1 @_ZNK7QAction11isSeparatorEv(ptr noundef nonnull align 8 dereferenceable(16) %56)
  br i1 %60, label %61, label %.split.us

.split.us:                                        ; preds = %59, %40
  %.us-phi = phi i32 [ %31, %40 ], [ %50, %59 ]
  %.us-phi31 = phi ptr [ %37, %40 ], [ %56, %59 ]
  store ptr %.us-phi31, ptr %4, align 8
  br label %.loopexit

61:                                               ; preds = %.preheader.split, %57, %59
  %.not28 = icmp eq i32 %50, %2
  br i1 %.not28, label %.loopexit, label %.preheader.split, !llvm.loop !21

.loopexit:                                        ; preds = %61, %42, %14, %5, %7, %.split.us
  %.0 = phi i32 [ %.us-phi, %.split.us ], [ -1, %7 ], [ -1, %5 ], [ -1, %14 ], [ -1, %42 ], [ -1, %61 ]
  ret i32 %.0
}